target datalayout = "e-m:e-p270:32:32-p271:32:32-p272:64:64-i64:64-i128:128-f80:128-n8:16:32:64-S128"
target triple = "x86_64-pc-linux-gnu"

@hf_dcerpc_drep = internal global i32 0, align 4
@hf_dcerpc_drep_byteorder = hidden global i32 0, align 4
@hf_dcerpc_drep_character = internal global i32 0, align 4
@hf_dcerpc_drep_fp = internal global i32 0, align 4
@ett_dcerpc_drep = internal global i32 0, align 4
@.str.445 = private unnamed_addr constant [34 x i8] c" (Order: %s, Char: %s, Float: %s)\00", align 1
@.str.446 = private unnamed_addr constant [13 x i8] c"Unknown (%u)\00", align 1
@drep_byteorder_vals = internal constant [3 x { i32, [4 x i8], ptr }] [{ i32, [4 x i8], ptr } { i32 0, [4 x i8] zeroinitializer, ptr @.str.470 }, { i32, [4 x i8], ptr } { i32 1, [4 x i8] zeroinitializer, ptr @.str.471 }, { i32, [4 x i8], ptr } zeroinitializer], align 16
@drep_character_vals = internal constant [3 x { i32, [4 x i8], ptr }] [{ i32, [4 x i8], ptr } { i32 0, [4 x i8] zeroinitializer, ptr @.str.473 }, { i32, [4 x i8], ptr } { i32 1, [4 x i8] zeroinitializer, ptr @.str.474 }, { i32, [4 x i8], ptr } zeroinitializer], align 16

; Function Attrs: null_pointer_is_valid sspstrong uwtable
define internal ptr @proto_tree_add_dcerpc_drep(ptr noundef %0, ptr noundef %1, i32 noundef %2, ptr noundef %3, i32 noundef %4) #0 {
  %6 = alloca ptr, align 8
  %7 = alloca ptr, align 8
  %8 = alloca i32, align 4
  %9 = alloca ptr, align 8
  %10 = alloca i32, align 4
  %11 = alloca i8, align 1
  %12 = alloca i8, align 1
  %13 = alloca i8, align 1
  %14 = alloca ptr, align 8
  %15 = alloca ptr, align 8
  store ptr %0, ptr %6, align 8
  store ptr %1, ptr %7, align 8
  store i32 %2, ptr %8, align 4
  store ptr %3, ptr %9, align 8
  store i32 %4, ptr %10, align 4
  call void @llvm.lifetime.start.p0(i64 1, ptr %11) #19
  %16 = load ptr, ptr %9, align 8
  %17 = getelementptr i8, ptr %16, i64 0
  %18 = load i8, ptr %17, align 1
  %19 = zext i8 %18 to i32
  %20 = ashr i32 %19, 4
  %21 = trunc i32 %20 to i8
  store i8 %21, ptr %11, align 1
  call void @llvm.lifetime.start.p0(i64 1, ptr %12) #19
  %22 = load ptr, ptr %9, align 8
  %23 = getelementptr i8, ptr %22, i64 0
  %24 = load i8, ptr %23, align 1
  %25 = zext i8 %24 to i32
  %26 = and i32 %25, 15
  %27 = trunc i32 %26 to i8
  store i8 %27, ptr %12, align 1
  call void @llvm.lifetime.start.p0(i64 1, ptr %13) #19
  %28 = load ptr, ptr %9, align 8
  %29 = getelementptr i8, ptr %28, i64 1
  %30 = load i8, ptr %29, align 1
  store i8 %30, ptr %13, align 1
  call void @llvm.lifetime.start.p0(i64 8, ptr %14) #19
  %31 = load ptr, ptr %6, align 8
  %32 = load i32, ptr @hf_dcerpc_drep, align 4
  %33 = load ptr, ptr %7, align 8
  %34 = load i32, ptr %8, align 4
  %35 = load i32, ptr %10, align 4
  %36 = load ptr, ptr %9, align 8
  %37 = call ptr @proto_tree_add_bytes(ptr noundef %31, i32 noundef %32, ptr noundef %33, i32 noundef %34, i32 noundef %35, ptr noundef %36)
  store ptr %37, ptr %14, align 8
  call void @llvm.lifetime.start.p0(i64 8, ptr %15) #19
  %38 = load ptr, ptr %14, align 8
  %39 = load i32, ptr @ett_dcerpc_drep, align 4
  %40 = call ptr @proto_item_add_subtree(ptr noundef %38, i32 noundef %39)
  store ptr %40, ptr %15, align 8
  %41 = load ptr, ptr %15, align 8
  %42 = load i32, ptr @hf_dcerpc_drep_byteorder, align 4
  %43 = load ptr, ptr %7, align 8
  %44 = load i32, ptr %8, align 4
  %45 = load i8, ptr %11, align 1
  %46 = zext i8 %45 to i32
  %47 = call ptr @proto_tree_add_uint(ptr noundef %41, i32 noundef %42, ptr noundef %43, i32 noundef %44, i32 noundef 1, i32 noundef %46)
  %48 = load ptr, ptr %15, align 8
  %49 = load i32, ptr @hf_dcerpc_drep_character, align 4
  %50 = load ptr, ptr %7, align 8
  %51 = load i32, ptr %8, align 4
  %52 = load i8, ptr %12, align 1
  %53 = zext i8 %52 to i32
  %54 = call ptr @proto_tree_add_uint(ptr noundef %48, i32 noundef %49, ptr noundef %50, i32 noundef %51, i32 noundef 1, i32 noundef %53)
  %55 = load ptr, ptr %15, align 8
  %56 = load i32, ptr @hf_dcerpc_drep_fp, align 4
  %57 = load ptr, ptr %7, align 8
  %58 = load i32, ptr %8, align 4
  %59 = add i32 %58, 1
  %60 = load i8, ptr %13, align 1
  %61 = zext i8 %60 to i32
  %62 = call ptr @proto_tree_add_uint(ptr noundef %55, i32 noundef %56, ptr noundef %57, i32 noundef %59, i32 noundef 1, i32 noundef %61)
  %63 = load ptr, ptr %14, align 8
  %64 = load i8, ptr %11, align 1
  %65 = zext i8 %64 to i32
  %66 = call ptr @val_to_str(i32 noundef %65, ptr noundef @drep_byteorder_vals, ptr noundef @.str.446)
  %67 = load i8, ptr %12, align 1
  %68 = zext i8 %67 to i32
  %69 = call ptr @val_to_str(i32 noundef %68, ptr noundef @drep_character_vals, ptr noundef @.str.446)
  %70 = load i8, ptr %13, align 1
  %71 = zext i8 %70 to i32
  %72 = call ptr @val_to_str(i32 noundef %71, ptr noundef @drep_fp_vals, ptr noundef @.str.446)
  call void (ptr, ptr, ...) @proto_item_append_text(ptr noundef %63, ptr noundef @.str.445, ptr noundef %66, ptr noundef %69, ptr noundef %72)
  %73 = load ptr, ptr %14, align 8
  call void @llvm.lifetime.end.p0(i64 8, ptr %15) #19
  call void @llvm.lifetime.end.p0(i64 8, ptr %14) #19
  call void @llvm.lifetime.end.p0(i64 1, ptr %13) #19
  call void @llvm.lifetime.end.p0(i64 1, ptr %12) #19
  call void @llvm.lifetime.end.p0(i64 1, ptr %11) #19
  ret ptr %73
}