; Function Attrs: null_pointer_is_valid sspstrong uwtable
define internal fastcc void @proto_tree_add_dcerpc_drep(ptr noundef %0, ptr noundef %1, i32 noundef %2, ptr noundef %3, i32 noundef range(i32 3, 5) %4) unnamed_addr #0 {
  %6 = load i8, ptr %3, align 1
  %7 = lshr i8 %6, 4
  %8 = and i8 %6, 15
  %9 = getelementptr i8, ptr %3, i64 1
  %10 = load i8, ptr %9, align 1
  %11 = load i32, ptr @hf_dcerpc_drep, align 4
  %12 = tail call ptr @proto_tree_add_bytes(ptr noundef %0, i32 noundef %11, ptr noundef %1, i32 noundef %2, i32 noundef %4, ptr noundef %3)
  %13 = load i32, ptr @ett_dcerpc_drep, align 4
  %14 = tail call ptr @proto_item_add_subtree(ptr noundef %12, i32 noundef %13)
  %15 = load i32, ptr @hf_dcerpc_drep_byteorder, align 4
  %16 = zext nneg i8 %7 to i32
  %17 = tail call ptr @proto_tree_add_uint(ptr noundef %14, i32 noundef %15, ptr noundef %1, i32 noundef %2, i32 noundef 1, i32 noundef %16)
  %18 = load i32, ptr @hf_dcerpc_drep_character, align 4
  %19 = zext nneg i8 %8 to i32
  %20 = tail call ptr @proto_tree_add_uint(ptr noundef %14, i32 noundef %18, ptr noundef %1, i32 noundef %2, i32 noundef 1, i32 noundef %19)
  %21 = load i32, ptr @hf_dcerpc_drep_fp, align 4
  %22 = add i32 %2, 1
  %23 = zext i8 %10 to i32
  %24 = tail call ptr @proto_tree_add_uint(ptr noundef %14, i32 noundef %21, ptr noundef %1, i32 noundef %22, i32 noundef 1, i32 noundef %23)
  %25 = tail call ptr @val_to_str(i32 noundef %16, ptr noundef nonnull @drep_byteorder_vals, ptr noundef nonnull @.str.446)
  %26 = tail call ptr @val_to_str(i32 noundef %19, ptr noundef nonnull @drep_character_vals, ptr noundef nonnull @.str.446)
  %27 = tail call ptr @val_to_str(i32 noundef %23, ptr noundef nonnull @drep_fp_vals, ptr noundef nonnull @.str.446)
  tail call void (ptr, ptr, ...) @proto_item_append_text(ptr noundef %12, ptr noundef nonnull @.str.445, ptr noundef %25, ptr noundef %26, ptr noundef %27)
  ret void
}